(lp0
(lp1
I1
aI2
aF3.0
aa(lp2
I3
aI4
aF5.0
aa(lp3
I1234
aI5
aF4.5
aa(lp4
I1234
aI5
aF4.5
aa(lp5
I1234
aI5
aF4.5
aa(lp6
I1234
aI3
aF4.0
aa(lp7
I1234
aI5
aF4.5
aa(lp8
I1234
aI5
aF4.5
aa(lp9
I1234
aI5
aF4.5
aa(lp10
I1234
aI5
aF4.5
aa(lp11
I1234
aI5
aF4.5
aa(lp12
I1234
aI5
aF4.5
aa(lp13
I1234
aI5
aF4.5
aa(lp14
I1234
aI5
aF4.5
aa(lp15
I11722
aI2
aF30.0
aa.