(ibatchclass
Batch
p0
(dp1
S'standard_Tu'
p2
F3.6
sS'original_text'
p3
S'2015-6-11 15-06-D5 9.1 m15-06-D5 1'
p4
sS'except_point'
p5
I0
sS'modeltimes'
p6
I1
sS'batchID'
p7
V15-06-D5
p8
sS'records'
p9
(lp10
V3.9
p11
aV4.3
p12
aVm
p13
aV3.5
p14
aV4.0
p15
aVt9.5
p16
aVswitch
p17
asS'outpressure'
p18
V9.1
p19
sS'date'
p20
V2015-6-11
p21
sS'standard_Tl'
p22
F3.0
sS'modelID'
p23
Vm15-06-D5
p24
sb.